; Function Attrs: mustprogress uwtable
define noundef zeroext i1 @_ZN3net17AeadBaseEncrypter13EncryptPacketEhmN4base16BasicStringPieceINSt7__cxx1112basic_stringIcSt11char_traitsIcESaIcEEEEES9_PcPmm(ptr noundef nonnull align 8 dereferenceable(96) %0, i8 noundef zeroext %1, i64 noundef %2, ptr %3, i64 %4, ptr noundef readonly byval(%"class.base::BasicStringPiece") align 8 captures(none) %5, ptr noundef %6, ptr noundef writeonly captures(none) %7, i64 noundef %8) unnamed_addr #0 align 2 {
  %10 = alloca i64, align 8
  %11 = alloca [12 x i8], align 4
  %12 = getelementptr inbounds nuw i8, ptr %5, i64 8
  %13 = load i64, ptr %12, align 8, !tbaa !20
  %14 = load ptr, ptr %0, align 8, !tbaa !3
  %15 = getelementptr inbounds nuw i8, ptr %14, i64 64
  %16 = load ptr, ptr %15, align 8
  %17 = tail call noundef i64 %16(ptr noundef nonnull align 8 dereferenceable(96) %0, i64 noundef %13)
  %18 = icmp ult i64 %8, %17
  br i1 %18, label %35, label %19

19:                                               ; preds = %9
  %20 = getelementptr inbounds nuw i8, ptr %0, i64 32
  %21 = load i64, ptr %20, align 8, !tbaa !17
  call void @llvm.lifetime.start.p0(i64 12, ptr nonnull %11) #9
  %22 = getelementptr inbounds nuw i8, ptr %0, i64 72
  call void @llvm.memcpy.p0.p0.i64(ptr nonnull align 4 %11, ptr nonnull align 8 %22, i64 %21, i1 false)
  %23 = tail call noundef i64 @_ZN3net9QuicUtils25PackPathIdAndPacketNumberEhm(i8 noundef zeroext %1, i64 noundef %2)
  %24 = load i64, ptr %20, align 8, !tbaa !17
  %25 = getelementptr inbounds nuw i8, ptr %11, i64 %24
  store i64 %23, ptr %25, align 1
  %.not.i = icmp eq i64 %21, %24
  br i1 %.not.i, label %26, label %_ZN3net17AeadBaseEncrypter7EncryptEN4base16BasicStringPieceINSt7__cxx1112basic_stringIcSt11char_traitsIcESaIcEEEEES9_S9_Ph.exit.thread

26:                                               ; preds = %19
  %27 = add i64 %21, 8
  %.sroa.013.0.copyload = load ptr, ptr %5, align 8, !tbaa !24
  call void @llvm.lifetime.start.p0(i64 8, ptr nonnull %10) #9
  %28 = getelementptr inbounds nuw i8, ptr %0, i64 80
  %29 = tail call noundef ptr @_ZN3net16ScopedEVPAEADCtx3getEv(ptr noundef nonnull align 8 dereferenceable(16) %28)
  %30 = getelementptr inbounds nuw i8, ptr %0, i64 24
  %31 = load i64, ptr %30, align 8, !tbaa !16
  %32 = add i64 %31, %13
  %33 = call i32 @EVP_AEAD_CTX_seal(ptr noundef %29, ptr noundef %6, ptr noundef nonnull %10, i64 noundef %32, ptr noundef nonnull %11, i64 noundef %27, ptr noundef %.sroa.013.0.copyload, i64 noundef %13, ptr noundef %3, i64 noundef %4)
  %.not3.i.not = icmp eq i32 %33, 0
  br i1 %.not3.i.not, label %.preheader.i, label %_ZN3net17AeadBaseEncrypter7EncryptEN4base16BasicStringPieceINSt7__cxx1112basic_stringIcSt11char_traitsIcESaIcEEEEES9_S9_Ph.exit.thread17

_ZN3net17AeadBaseEncrypter7EncryptEN4base16BasicStringPieceINSt7__cxx1112basic_stringIcSt11char_traitsIcESaIcEEEEES9_S9_Ph.exit.thread17: ; preds = %26
  call void @llvm.lifetime.end.p0(i64 8, ptr nonnull %10) #9
  store i64 %17, ptr %7, align 8, !tbaa !25
  br label %_ZN3net17AeadBaseEncrypter7EncryptEN4base16BasicStringPieceINSt7__cxx1112basic_stringIcSt11char_traitsIcESaIcEEEEES9_S9_Ph.exit.thread

.preheader.i:                                     ; preds = %26, %.preheader.i
  %34 = call i32 @ERR_get_error()
  %.not.i.i = icmp eq i32 %34, 0
  br i1 %.not.i.i, label %_ZN3net17AeadBaseEncrypter7EncryptEN4base16BasicStringPieceINSt7__cxx1112basic_stringIcSt11char_traitsIcESaIcEEEEES9_S9_Ph.exit, label %.preheader.i, !llvm.loop !18

_ZN3net17AeadBaseEncrypter7EncryptEN4base16BasicStringPieceINSt7__cxx1112basic_stringIcSt11char_traitsIcESaIcEEEEES9_S9_Ph.exit: ; preds = %.preheader.i
  call void @llvm.lifetime.end.p0(i64 8, ptr nonnull %10) #9
  br label %_ZN3net17AeadBaseEncrypter7EncryptEN4base16BasicStringPieceINSt7__cxx1112basic_stringIcSt11char_traitsIcESaIcEEEEES9_S9_Ph.exit.thread

_ZN3net17AeadBaseEncrypter7EncryptEN4base16BasicStringPieceINSt7__cxx1112basic_stringIcSt11char_traitsIcESaIcEEEEES9_S9_Ph.exit.thread: ; preds = %_ZN3net17AeadBaseEncrypter7EncryptEN4base16BasicStringPieceINSt7__cxx1112basic_stringIcSt11char_traitsIcESaIcEEEEES9_S9_Ph.exit, %19, %_ZN3net17AeadBaseEncrypter7EncryptEN4base16BasicStringPieceINSt7__cxx1112basic_stringIcSt11char_traitsIcESaIcEEEEES9_S9_Ph.exit.thread17
  %.0.i16 = phi i1 [ false, %_ZN3net17AeadBaseEncrypter7EncryptEN4base16BasicStringPieceINSt7__cxx1112basic_stringIcSt11char_traitsIcESaIcEEEEES9_S9_Ph.exit ], [ true, %_ZN3net17AeadBaseEncrypter7EncryptEN4base16BasicStringPieceINSt7__cxx1112basic_stringIcSt11char_traitsIcESaIcEEEEES9_S9_Ph.exit.thread17 ], [ false, %19 ]
  call void @llvm.lifetime.end.p0(i64 12, ptr nonnull %11) #9
  br label %35

35:                                               ; preds = %9, %_ZN3net17AeadBaseEncrypter7EncryptEN4base16BasicStringPieceINSt7__cxx1112basic_stringIcSt11char_traitsIcESaIcEEEEES9_S9_Ph.exit.thread
  %.0 = phi i1 [ %.0.i16, %_ZN3net17AeadBaseEncrypter7EncryptEN4base16BasicStringPieceINSt7__cxx1112basic_stringIcSt11char_traitsIcESaIcEEEEES9_S9_Ph.exit.thread ], [ false, %9 ]
  ret i1 %.0
}